target datalayout = "e-m:e-p270:32:32-p271:32:32-p272:64:64-i64:64-f80:128-n8:16:32:64-S128"
target triple = "x86_64-pc-linux-gnu"

%struct.student = type { [20 x i8], i32, i32, i8, i8, i32, i32 }

@.str = private unnamed_addr constant [3 x i8] c"%d\00", align 1
@.str.1 = private unnamed_addr constant [18 x i8] c"%s %d %d %c %c %d\00", align 1
@.str.2 = private unnamed_addr constant [10 x i8] c"%s\0A%d\0A%d\0A\00", align 1

; Function Attrs: noinline nounwind uwtable
define dso_local void @main() #0 {
  %1 = alloca i32, align 4
  %2 = alloca [100 x %struct.student], align 16
  %3 = alloca i32, align 4
  %4 = alloca i32, align 4
  %5 = alloca [20 x i8], align 16
  %6 = alloca i32, align 4
  %7 = call i32 (i8*, ...) @__isoc99_scanf(i8* getelementptr inbounds ([3 x i8], [3 x i8]* @.str, i64 0, i64 0), i32* %1)
  store i32 0, i32* %3, align 4
  br label %8

8:                                                ; preds = %142, %0
  %9 = load i32, i32* %3, align 4
  %10 = load i32, i32* %1, align 4
  %11 = icmp slt i32 %9, %10
  br i1 %11, label %12, label %145

12:                                               ; preds = %8
  %13 = load i32, i32* %3, align 4
  %14 = sext i32 %13 to i64
  %15 = getelementptr inbounds [100 x %struct.student], [100 x %struct.student]* %2, i64 0, i64 %14
  %16 = getelementptr inbounds %struct.student, %struct.student* %15, i32 0, i32 0
  %17 = load i32, i32* %3, align 4
  %18 = sext i32 %17 to i64
  %19 = getelementptr inbounds [100 x %struct.student], [100 x %struct.student]* %2, i64 0, i64 %18
  %20 = getelementptr inbounds %struct.student, %struct.student* %19, i32 0, i32 1
  %21 = load i32, i32* %3, align 4
  %22 = sext i32 %21 to i64
  %23 = getelementptr inbounds [100 x %struct.student], [100 x %struct.student]* %2, i64 0, i64 %22
  %24 = getelementptr inbounds %struct.student, %struct.student* %23, i32 0, i32 2
  %25 = load i32, i32* %3, align 4
  %26 = sext i32 %25 to i64
  %27 = getelementptr inbounds [100 x %struct.student], [100 x %struct.student]* %2, i64 0, i64 %26
  %28 = getelementptr inbounds %struct.student, %struct.student* %27, i32 0, i32 3
  %29 = load i32, i32* %3, align 4
  %30 = sext i32 %29 to i64
  %31 = getelementptr inbounds [100 x %struct.student], [100 x %struct.student]* %2, i64 0, i64 %30
  %32 = getelementptr inbounds %struct.student, %struct.student* %31, i32 0, i32 4
  %33 = load i32, i32* %3, align 4
  %34 = sext i32 %33 to i64
  %35 = getelementptr inbounds [100 x %struct.student], [100 x %struct.student]* %2, i64 0, i64 %34
  %36 = getelementptr inbounds %struct.student, %struct.student* %35, i32 0, i32 5
  %37 = call i32 (i8*, ...) @__isoc99_scanf(i8* getelementptr inbounds ([18 x i8], [18 x i8]* @.str.1, i64 0, i64 0), [20 x i8]* %16, i32* %20, i32* %24, i8* %28, i8* %32, i32* %36)
  %38 = load i32, i32* %3, align 4
  %39 = sext i32 %38 to i64
  %40 = getelementptr inbounds [100 x %struct.student], [100 x %struct.student]* %2, i64 0, i64 %39
  %41 = getelementptr inbounds %struct.student, %struct.student* %40, i32 0, i32 6
  store i32 0, i32* %41, align 4
  %42 = load i32, i32* %3, align 4
  %43 = sext i32 %42 to i64
  %44 = getelementptr inbounds [100 x %struct.student], [100 x %struct.student]* %2, i64 0, i64 %43
  %45 = getelementptr inbounds %struct.student, %struct.student* %44, i32 0, i32 1
  %46 = load i32, i32* %45, align 4
  %47 = icmp sgt i32 %46, 90
  br i1 %47, label %48, label %55

48:                                               ; preds = %12
  %49 = load i32, i32* %3, align 4
  %50 = sext i32 %49 to i64
  %51 = getelementptr inbounds [100 x %struct.student], [100 x %struct.student]* %2, i64 0, i64 %50
  %52 = getelementptr inbounds %struct.student, %struct.student* %51, i32 0, i32 6
  %53 = load i32, i32* %52, align 4
  %54 = add nsw i32 %53, 2000
  store i32 %54, i32* %52, align 4
  br label %55

55:                                               ; preds = %48, %12
  %56 = load i32, i32* %3, align 4
  %57 = sext i32 %56 to i64
  %58 = getelementptr inbounds [100 x %struct.student], [100 x %struct.student]* %2, i64 0, i64 %57
  %59 = getelementptr inbounds %struct.student, %struct.student* %58, i32 0, i32 1
  %60 = load i32, i32* %59, align 4
  %61 = icmp sgt i32 %60, 80
  br i1 %61, label %62, label %76

62:                                               ; preds = %55
  %63 = load i32, i32* %3, align 4
  %64 = sext i32 %63 to i64
  %65 = getelementptr inbounds [100 x %struct.student], [100 x %struct.student]* %2, i64 0, i64 %64
  %66 = getelementptr inbounds %struct.student, %struct.student* %65, i32 0, i32 5
  %67 = load i32, i32* %66, align 8
  %68 = icmp sge i32 %67, 1
  br i1 %68, label %69, label %76

69:                                               ; preds = %62
  %70 = load i32, i32* %3, align 4
  %71 = sext i32 %70 to i64
  %72 = getelementptr inbounds [100 x %struct.student], [100 x %struct.student]* %2, i64 0, i64 %71
  %73 = getelementptr inbounds %struct.student, %struct.student* %72, i32 0, i32 6
  %74 = load i32, i32* %73, align 4
  %75 = add nsw i32 %74, 8000
  store i32 %75, i32* %73, align 4
  br label %76

76:                                               ; preds = %69, %62, %55
  %77 = load i32, i32* %3, align 4
  %78 = sext i32 %77 to i64
  %79 = getelementptr inbounds [100 x %struct.student], [100 x %struct.student]* %2, i64 0, i64 %78
  %80 = getelementptr inbounds %struct.student, %struct.student* %79, i32 0, i32 1
  %81 = load i32, i32* %80, align 4
  %82 = icmp sgt i32 %81, 85
  br i1 %82, label %83, label %98

83:                                               ; preds = %76
  %84 = load i32, i32* %3, align 4
  %85 = sext i32 %84 to i64
  %86 = getelementptr inbounds [100 x %struct.student], [100 x %struct.student]* %2, i64 0, i64 %85
  %87 = getelementptr inbounds %struct.student, %struct.student* %86, i32 0, i32 4
  %88 = load i8, i8* %87, align 1
  %89 = sext i8 %88 to i32
  %90 = icmp eq i32 %89, 89
  br i1 %90, label %91, label %98

91:                                               ; preds = %83
  %92 = load i32, i32* %3, align 4
  %93 = sext i32 %92 to i64
  %94 = getelementptr inbounds [100 x %struct.student], [100 x %struct.student]* %2, i64 0, i64 %93
  %95 = getelementptr inbounds %struct.student, %struct.student* %94, i32 0, i32 6
  %96 = load i32, i32* %95, align 4
  %97 = add nsw i32 %96, 1000
  store i32 %97, i32* %95, align 4
  br label %98

98:                                               ; preds = %91, %83, %76
  %99 = load i32, i32* %3, align 4
  %100 = sext i32 %99 to i64
  %101 = getelementptr inbounds [100 x %struct.student], [100 x %struct.student]* %2, i64 0, i64 %100
  %102 = getelementptr inbounds %struct.student, %struct.student* %101, i32 0, i32 1
  %103 = load i32, i32* %102, align 4
  %104 = icmp sgt i32 %103, 85
  br i1 %104, label %105, label %119

105:                                              ; preds = %98
  %106 = load i32, i32* %3, align 4
  %107 = sext i32 %106 to i64
  %108 = getelementptr inbounds [100 x %struct.student], [100 x %struct.student]* %2, i64 0, i64 %107
  %109 = getelementptr inbounds %struct.student, %struct.student* %108, i32 0, i32 2
  %110 = load i32, i32* %109, align 8
  %111 = icmp sgt i32 %110, 80
  br i1 %111, label %112, label %119

112:                                              ; preds = %105
  %113 = load i32, i32* %3, align 4
  %114 = sext i32 %113 to i64
  %115 = getelementptr inbounds [100 x %struct.student], [100 x %struct.student]* %2, i64 0, i64 %114
  %116 = getelementptr inbounds %struct.student, %struct.student* %115, i32 0, i32 6
  %117 = load i32, i32* %116, align 4
  %118 = add nsw i32 %117, 4000
  store i32 %118, i32* %116, align 4
  br label %119

119:                                              ; preds = %112, %105, %98
  %120 = load i32, i32* %3, align 4
  %121 = sext i32 %120 to i64
  %122 = getelementptr inbounds [100 x %struct.student], [100 x %struct.student]* %2, i64 0, i64 %121
  %123 = getelementptr inbounds %struct.student, %struct.student* %122, i32 0, i32 2
  %124 = load i32, i32* %123, align 8
  %125 = icmp sgt i32 %124, 80
  br i1 %125, label %126, label %141

126:                                              ; preds = %119
  %127 = load i32, i32* %3, align 4
  %128 = sext i32 %127 to i64
  %129 = getelementptr inbounds [100 x %struct.student], [100 x %struct.student]* %2, i64 0, i64 %128
  %130 = getelementptr inbounds %struct.student, %struct.student* %129, i32 0, i32 3
  %131 = load i8, i8* %130, align 4
  %132 = sext i8 %131 to i32
  %133 = icmp eq i32 %132, 89
  br i1 %133, label %134, label %141

134:                                              ; preds = %126
  %135 = load i32, i32* %3, align 4
  %136 = sext i32 %135 to i64
  %137 = getelementptr inbounds [100 x %struct.student], [100 x %struct.student]* %2, i64 0, i64 %136
  %138 = getelementptr inbounds %struct.student, %struct.student* %137, i32 0, i32 6
  %139 = load i32, i32* %138, align 4
  %140 = add nsw i32 %139, 850
  store i32 %140, i32* %138, align 4
  br label %141

141:                                              ; preds = %134, %126, %119
  br label %142

142:                                              ; preds = %141
  %143 = load i32, i32* %3, align 4
  %144 = add nsw i32 %143, 1
  store i32 %144, i32* %3, align 4
  br label %8

145:                                              ; preds = %8
  store i32 0, i32* %6, align 4
  store i32 0, i32* %3, align 4
  br label %146

146:                                              ; preds = %158, %145
  %147 = load i32, i32* %3, align 4
  %148 = load i32, i32* %1, align 4
  %149 = icmp slt i32 %147, %148
  br i1 %149, label %150, label %161

150:                                              ; preds = %146
  %151 = load i32, i32* %3, align 4
  %152 = sext i32 %151 to i64
  %153 = getelementptr inbounds [100 x %struct.student], [100 x %struct.student]* %2, i64 0, i64 %152
  %154 = getelementptr inbounds %struct.student, %struct.student* %153, i32 0, i32 6
  %155 = load i32, i32* %154, align 4
  %156 = load i32, i32* %6, align 4
  %157 = add nsw i32 %156, %155
  store i32 %157, i32* %6, align 4
  br label %158

158:                                              ; preds = %150
  %159 = load i32, i32* %3, align 4
  %160 = add nsw i32 %159, 1
  store i32 %160, i32* %3, align 4
  br label %146

161:                                              ; preds = %146
  store i32 0, i32* %3, align 4
  br label %162

162:                                              ; preds = %230, %161
  %163 = load i32, i32* %3, align 4
  %164 = load i32, i32* %1, align 4
  %165 = sub nsw i32 %164, 1
  %166 = icmp slt i32 %163, %165
  br i1 %166, label %167, label %233

167:                                              ; preds = %162
  %168 = load i32, i32* %3, align 4
  %169 = sext i32 %168 to i64
  %170 = getelementptr inbounds [100 x %struct.student], [100 x %struct.student]* %2, i64 0, i64 %169
  %171 = getelementptr inbounds %struct.student, %struct.student* %170, i32 0, i32 6
  %172 = load i32, i32* %171, align 4
  %173 = load i32, i32* %3, align 4
  %174 = add nsw i32 %173, 1
  %175 = sext i32 %174 to i64
  %176 = getelementptr inbounds [100 x %struct.student], [100 x %struct.student]* %2, i64 0, i64 %175
  %177 = getelementptr inbounds %struct.student, %struct.student* %176, i32 0, i32 6
  %178 = load i32, i32* %177, align 4
  %179 = icmp sge i32 %172, %178
  br i1 %179, label %180, label %229

180:                                              ; preds = %167
  %181 = load i32, i32* %3, align 4
  %182 = sext i32 %181 to i64
  %183 = getelementptr inbounds [100 x %struct.student], [100 x %struct.student]* %2, i64 0, i64 %182
  %184 = getelementptr inbounds %struct.student, %struct.student* %183, i32 0, i32 6
  %185 = load i32, i32* %184, align 4
  store i32 %185, i32* %4, align 4
  %186 = getelementptr inbounds [20 x i8], [20 x i8]* %5, i64 0, i64 0
  %187 = load i32, i32* %3, align 4
  %188 = sext i32 %187 to i64
  %189 = getelementptr inbounds [100 x %struct.student], [100 x %struct.student]* %2, i64 0, i64 %188
  %190 = getelementptr inbounds %struct.student, %struct.student* %189, i32 0, i32 0
  %191 = getelementptr inbounds [20 x i8], [20 x i8]* %190, i64 0, i64 0
  %192 = call i8* @strcpy(i8* %186, i8* %191) #3
  %193 = load i32, i32* %3, align 4
  %194 = sext i32 %193 to i64
  %195 = getelementptr inbounds [100 x %struct.student], [100 x %struct.student]* %2, i64 0, i64 %194
  %196 = getelementptr inbounds %struct.student, %struct.student* %195, i32 0, i32 0
  %197 = getelementptr inbounds [20 x i8], [20 x i8]* %196, i64 0, i64 0
  %198 = load i32, i32* %3, align 4
  %199 = add nsw i32 %198, 1
  %200 = sext i32 %199 to i64
  %201 = getelementptr inbounds [100 x %struct.student], [100 x %struct.student]* %2, i64 0, i64 %200
  %202 = getelementptr inbounds %struct.student, %struct.student* %201, i32 0, i32 0
  %203 = getelementptr inbounds [20 x i8], [20 x i8]* %202, i64 0, i64 0
  %204 = call i8* @strcpy(i8* %197, i8* %203) #3
  %205 = load i32, i32* %3, align 4
  %206 = add nsw i32 %205, 1
  %207 = sext i32 %206 to i64
  %208 = getelementptr inbounds [100 x %struct.student], [100 x %struct.student]* %2, i64 0, i64 %207
  %209 = getelementptr inbounds %struct.student, %struct.student* %208, i32 0, i32 6
  %210 = load i32, i32* %209, align 4
  %211 = load i32, i32* %3, align 4
  %212 = sext i32 %211 to i64
  %213 = getelementptr inbounds [100 x %struct.student], [100 x %struct.student]* %2, i64 0, i64 %212
  %214 = getelementptr inbounds %struct.student, %struct.student* %213, i32 0, i32 6
  store i32 %210, i32* %214, align 4
  %215 = load i32, i32* %3, align 4
  %216 = add nsw i32 %215, 1
  %217 = sext i32 %216 to i64
  %218 = getelementptr inbounds [100 x %struct.student], [100 x %struct.student]* %2, i64 0, i64 %217
  %219 = getelementptr inbounds %struct.student, %struct.student* %218, i32 0, i32 0
  %220 = getelementptr inbounds [20 x i8], [20 x i8]* %219, i64 0, i64 0
  %221 = getelementptr inbounds [20 x i8], [20 x i8]* %5, i64 0, i64 0
  %222 = call i8* @strcpy(i8* %220, i8* %221) #3
  %223 = load i32, i32* %4, align 4
  %224 = load i32, i32* %3, align 4
  %225 = add nsw i32 %224, 1
  %226 = sext i32 %225 to i64
  %227 = getelementptr inbounds [100 x %struct.student], [100 x %struct.student]* %2, i64 0, i64 %226
  %228 = getelementptr inbounds %struct.student, %struct.student* %227, i32 0, i32 6
  store i32 %223, i32* %228, align 4
  br label %229

229:                                              ; preds = %180, %167
  br label %230

230:                                              ; preds = %229
  %231 = load i32, i32* %3, align 4
  %232 = add nsw i32 %231, 1
  store i32 %232, i32* %3, align 4
  br label %162

233:                                              ; preds = %162
  %234 = load i32, i32* %1, align 4
  %235 = sub nsw i32 %234, 1
  %236 = sext i32 %235 to i64
  %237 = getelementptr inbounds [100 x %struct.student], [100 x %struct.student]* %2, i64 0, i64 %236
  %238 = getelementptr inbounds %struct.student, %struct.student* %237, i32 0, i32 0
  %239 = getelementptr inbounds [20 x i8], [20 x i8]* %238, i64 0, i64 0
  %240 = load i32, i32* %1, align 4
  %241 = sub nsw i32 %240, 1
  %242 = sext i32 %241 to i64
  %243 = getelementptr inbounds [100 x %struct.student], [100 x %struct.student]* %2, i64 0, i64 %242
  %244 = getelementptr inbounds %struct.student, %struct.student* %243, i32 0, i32 6
  %245 = load i32, i32* %244, align 4
  %246 = load i32, i32* %6, align 4
  %247 = call i32 (i8*, ...) @printf(i8* getelementptr inbounds ([10 x i8], [10 x i8]* @.str.2, i64 0, i64 0), i8* %239, i32 %245, i32 %246)
  ret void
}